; Function Attrs: mustprogress nofree norecurse nosync nounwind willreturn memory(none) uwtable
define noundef i32 @_Z31roundUpToTheNextHighestPowerOf2j(i32 noundef %0) local_unnamed_addr #14 {
  %2 = add i32 %0, -1
  %3 = lshr i32 %2, 1
  %4 = or i32 %3, %2
  %5 = lshr i32 %4, 2
  %6 = or i32 %5, %4
  %7 = lshr i32 %6, 4
  %8 = or i32 %7, %6
  %9 = lshr i32 %8, 8
  %10 = or i32 %9, %8
  %11 = lshr i32 %10, 16
  %12 = or i32 %11, %10
  %13 = add i32 %12, 1
  ret i32 %13
}